target datalayout = "e-m:e-p270:32:32-p271:32:32-p272:64:64-i64:64-i128:128-f80:128-n8:16:32:64-S128"
target triple = "x86_64-unknown-linux-gnu"

; Function Attrs: mustprogress nounwind uwtable
define internal noundef zeroext i1 @_ZN4node6crypto12_GLOBAL__N_116UseP1363EncodingERKNS0_14ManagedEVPPKeyERKNS0_9DSASigEncE(ptr noundef nonnull align 8 dereferenceable(32) %key, ptr noundef nonnull align 4 dereferenceable(4) %dsa_encoding) #4 {
entry:
  %retval = alloca i1, align 1
  %key.addr = alloca ptr, align 8
  %dsa_encoding.addr = alloca ptr, align 8
  store ptr %key, ptr %key.addr, align 8
  store ptr %dsa_encoding, ptr %dsa_encoding.addr, align 8
  %0 = load ptr, ptr %key.addr, align 8
  %call = call noundef ptr @_ZNK4node6crypto14ManagedEVPPKey3getEv(ptr noundef nonnull align 8 dereferenceable(32) %0)
  %call1 = call i32 @EVP_PKEY_get_id(ptr noundef %call)
  switch i32 %call1, label %sw.default [
    i32 408, label %sw.bb
    i32 116, label %sw.bb
  ]

sw.bb:                                            ; preds = %entry, %entry
  %1 = load ptr, ptr %dsa_encoding.addr, align 8
  %2 = load i32, ptr %1, align 4
  %cmp = icmp eq i32 %2, 1
  store i1 %cmp, ptr %retval, align 1
  br label %return

sw.default:                                       ; preds = %entry
  store i1 false, ptr %retval, align 1
  br label %return

return:                                           ; preds = %sw.default, %sw.bb
  %3 = load i1, ptr %retval, align 1
  ret i1 %3
}