; Function Attrs: mustprogress nounwind uwtable
define internal fastcc noundef zeroext i1 @_ZN4node6crypto12_GLOBAL__N_116UseP1363EncodingERKNS0_14ManagedEVPPKeyERKNS0_9DSASigEncE(ptr noundef nonnull align 8 dereferenceable(32) %key, ptr nocapture noundef nonnull readonly align 4 dereferenceable(4) %dsa_encoding) unnamed_addr #3 {
entry:
  %call = tail call noundef ptr @_ZNK4node6crypto14ManagedEVPPKey3getEv(ptr noundef nonnull align 8 dereferenceable(32) %key) #21
  %call1 = tail call i32 @EVP_PKEY_get_id(ptr noundef %call) #21
  switch i32 %call1, label %return [
    i32 408, label %sw.bb
    i32 116, label %sw.bb
  ]

sw.bb:                                            ; preds = %entry, %entry
  %0 = load i32, ptr %dsa_encoding, align 4
  %cmp = icmp eq i32 %0, 1
  br label %return

return:                                           ; preds = %entry, %sw.bb
  %retval.0 = phi i1 [ %cmp, %sw.bb ], [ false, %entry ]
  ret i1 %retval.0
}